; Function Attrs: mustprogress nounwind uwtable
define internal void @_ZZN3euf10completion13set_canonicalEPNS_5enodeEP4exprEN6vtrailD0Ev(ptr noundef nonnull align 8 dereferenceable(40) %this) unnamed_addr #4 align 2 personality ptr @__gxx_personality_v0 {
entry:
  store ptr getelementptr inbounds ({ [5 x ptr] }, ptr @_ZTVZN3euf10completion13set_canonicalEPNS_5enodeEP4exprE6vtrail, i64 0, i32 0, i64 2), ptr %this, align 8
  %old_value.i = getelementptr inbounds i8, ptr %this, i64 24
  %0 = load ptr, ptr %old_value.i, align 8
  %tobool.not.i.i.i = icmp eq ptr %0, null
  br i1 %tobool.not.i.i.i, label %_ZZN3euf10completion13set_canonicalEPNS_5enodeEP4exprEN6vtrailD2Ev.exit, label %if.then.i.i.i.i

if.then.i.i.i.i:                                  ; preds = %entry
  %m_manager.i.i.i = getelementptr inbounds i8, ptr %this, i64 32
  %1 = load ptr, ptr %m_manager.i.i.i, align 8
  %m_ref_count.i.i.i.i.i = getelementptr inbounds i8, ptr %0, i64 8
  %2 = load i32, ptr %m_ref_count.i.i.i.i.i, align 4
  %dec.i.i.i.i.i = add i32 %2, -1
  store i32 %dec.i.i.i.i.i, ptr %m_ref_count.i.i.i.i.i, align 4
  %cmp.i.i.i.i = icmp eq i32 %dec.i.i.i.i.i, 0
  br i1 %cmp.i.i.i.i, label %if.then2.i.i.i.i, label %_ZZN3euf10completion13set_canonicalEPNS_5enodeEP4exprEN6vtrailD2Ev.exit

if.then2.i.i.i.i:                                 ; preds = %if.then.i.i.i.i
  invoke void @_ZN11ast_manager11delete_nodeEP3ast(ptr noundef nonnull align 8 dereferenceable(976) %1, ptr noundef nonnull %0)
          to label %_ZZN3euf10completion13set_canonicalEPNS_5enodeEP4exprEN6vtrailD2Ev.exit unwind label %terminate.lpad.i.i

terminate.lpad.i.i:                               ; preds = %if.then2.i.i.i.i
  %3 = landingpad { ptr, i32 }
          catch ptr null
  %4 = extractvalue { ptr, i32 } %3, 0
  tail call void @__clang_call_terminate(ptr %4) #17
  unreachable

_ZZN3euf10completion13set_canonicalEPNS_5enodeEP4exprEN6vtrailD2Ev.exit: ; preds = %entry, %if.then.i.i.i.i, %if.then2.i.i.i.i
  tail call void @_ZdlPv(ptr noundef nonnull %this) #19
  ret void
}